target datalayout = "e-m:e-p270:32:32-p271:32:32-p272:64:64-i64:64-i128:128-f80:128-n8:16:32:64-S128"
target triple = "x86_64-pc-linux-gnu"

%struct.ASN1_ITEM_st = type { i8, i64, ptr, i64, ptr, i64, ptr }

@.str.9 = private unnamed_addr constant [4 x i8] c"%d\0A\00", align 1
@.str.10 = private unnamed_addr constant [4 x i8] c"%u\0A\00", align 1

; Function Attrs: nounwind uwtable
define internal i32 @uint32_print(ptr noundef %0, ptr noundef %1, ptr noundef %2, i32 noundef %3, ptr noundef %4) #0 {
  %6 = alloca i32, align 4
  %7 = alloca ptr, align 8
  %8 = alloca ptr, align 8
  %9 = alloca ptr, align 8
  %10 = alloca i32, align 4
  %11 = alloca ptr, align 8
  store ptr %0, ptr %7, align 8, !tbaa !23
  store ptr %1, ptr %8, align 8, !tbaa !3
  store ptr %2, ptr %9, align 8, !tbaa !8
  store i32 %3, ptr %10, align 4, !tbaa !14
  store ptr %4, ptr %11, align 8, !tbaa !25
  %12 = load ptr, ptr %9, align 8, !tbaa !8
  %13 = getelementptr inbounds nuw %struct.ASN1_ITEM_st, ptr %12, i32 0, i32 5
  %14 = load i64, ptr %13, align 8, !tbaa !20
  %15 = and i64 %14, 2
  %16 = icmp eq i64 %15, 2
  br i1 %16, label %17, label %23

17:                                               ; preds = %5
  %18 = load ptr, ptr %7, align 8, !tbaa !23
  %19 = load ptr, ptr %8, align 8, !tbaa !3
  %20 = load ptr, ptr %19, align 8, !tbaa !12
  %21 = load i32, ptr %20, align 4, !tbaa !14
  %22 = call i32 (ptr, ptr, ...) @BIO_printf(ptr noundef %18, ptr noundef @.str.9, i32 noundef %21)
  store i32 %22, ptr %6, align 4
  br label %29

23:                                               ; preds = %5
  %24 = load ptr, ptr %7, align 8, !tbaa !23
  %25 = load ptr, ptr %8, align 8, !tbaa !3
  %26 = load ptr, ptr %25, align 8, !tbaa !12
  %27 = load i32, ptr %26, align 4, !tbaa !14
  %28 = call i32 (ptr, ptr, ...) @BIO_printf(ptr noundef %24, ptr noundef @.str.10, i32 noundef %27)
  store i32 %28, ptr %6, align 4
  br label %29

29:                                               ; preds = %23, %17
  %30 = load i32, ptr %6, align 4
  ret i32 %30
}