; Function Attrs: nounwind uwtable
define internal i32 @uint32_print(ptr noundef %0, ptr noundef readonly captures(none) %1, ptr noundef readonly captures(none) %2, i32 %3, ptr readnone captures(none) %4) #1 {
  %6 = getelementptr inbounds nuw i8, ptr %2, i64 40
  %7 = load i64, ptr %6, align 8, !tbaa !16
  %8 = and i64 %7, 2
  %.not = icmp eq i64 %8, 0
  %9 = load ptr, ptr %1, align 8, !tbaa !8
  %10 = load i32, ptr %9, align 4, !tbaa !10
  %.str.10..str.9 = select i1 %.not, ptr @.str.10, ptr @.str.9
  %11 = tail call i32 (ptr, ptr, ...) @BIO_printf(ptr noundef %0, ptr noundef nonnull %.str.10..str.9, i32 noundef %10) #5
  ret i32 %11
}